target datalayout = "e-m:e-p270:32:32-p271:32:32-p272:64:64-i64:64-i128:128-f80:128-n8:16:32:64-S128"
target triple = "x86_64-pc-linux-gnu"

%class.anon.705 = type { i8 }

@.str.437 = private unnamed_addr constant [6 x i8] c"value\00", align 1
@.str.493 = private unnamed_addr constant [6 x i8] c"int64\00", align 1
@.str.502 = private unnamed_addr constant [17 x i8] c"unknown field %s\00", align 1

; Function Attrs: mustprogress uwtable
define internal noundef i32 @"_ZZZL21DOCTEST_ANON_FUNC_128vENK3$_0clEP9lua_StateENKUlS1_E_clES1_"(ptr noundef nonnull align 1 dereferenceable(1) %0, ptr noundef %1) #4 align 2 {
  %3 = alloca ptr, align 8
  %4 = alloca ptr, align 8
  %5 = alloca ptr, align 8
  %6 = alloca ptr, align 8
  store ptr %0, ptr %3, align 8
  store ptr %1, ptr %4, align 8
  %7 = load ptr, ptr %4, align 8
  %8 = call noundef ptr @_Z20lua_touserdatataggedP9lua_Stateii(ptr noundef %7, i32 noundef 1, i32 noundef 1)
  store ptr %8, ptr %5, align 8
  %9 = load ptr, ptr %5, align 8
  %10 = icmp ne ptr %9, null
  br i1 %10, label %13, label %11

11:                                               ; preds = %2
  %12 = load ptr, ptr %4, align 8
  call void @_Z15luaL_typeerrorLP9lua_StateiPKc(ptr noundef %12, i32 noundef 1, ptr noundef @.str.493) #19
  unreachable

13:                                               ; preds = %2
  %14 = load ptr, ptr %4, align 8
  %15 = call noundef ptr @_Z17luaL_checklstringP9lua_StateiPm(ptr noundef %14, i32 noundef 2, ptr noundef null)
  store ptr %15, ptr %6, align 8
  %16 = load ptr, ptr %6, align 8
  %17 = call i32 @strcmp(ptr noundef %16, ptr noundef @.str.437) #18
  %18 = icmp eq i32 %17, 0
  br i1 %18, label %19, label %24

19:                                               ; preds = %13
  %20 = load ptr, ptr %4, align 8
  %21 = load ptr, ptr %5, align 8
  %22 = load i64, ptr %21, align 8
  %23 = sitofp i64 %22 to double
  call void @_Z14lua_pushnumberP9lua_Stated(ptr noundef %20, double noundef %23)
  ret i32 1

24:                                               ; preds = %13
  %25 = load ptr, ptr %4, align 8
  %26 = load ptr, ptr %6, align 8
  call void (ptr, ptr, ...) @_Z11luaL_errorLP9lua_StatePKcz(ptr noundef %25, ptr noundef @.str.502, ptr noundef %26) #19
  unreachable
}

; Function Attrs: mustprogress uwtable
define internal noundef i32 @"_ZZZL21DOCTEST_ANON_FUNC_128vENK3$_0clEP9lua_StateENUlS1_E_8__invokeES1_"(ptr noundef %0) #4 align 2 {
  %2 = alloca ptr, align 8
  %3 = alloca %class.anon.705, align 1
  store ptr %0, ptr %2, align 8
  %4 = load ptr, ptr %2, align 8
  %5 = call noundef i32 @"_ZZZL21DOCTEST_ANON_FUNC_128vENK3$_0clEP9lua_StateENKUlS1_E_clES1_"(ptr noundef nonnull align 1 dereferenceable(1) %3, ptr noundef %4)
  ret i32 %5
}